target datalayout = "e-m:e-p270:32:32-p271:32:32-p272:64:64-i64:64-i128:128-f80:128-n8:16:32:64-S128"
target triple = "x86_64-pc-linux-gnu"

; Function Attrs: mustprogress nounwind uwtable
define internal noundef i32 @_ZL12Decode85Bytec(i8 noundef signext %0) #3 {
  %2 = alloca i8, align 1
  store i8 %0, ptr %2, align 1, !tbaa !41
  %3 = load i8, ptr %2, align 1, !tbaa !41
  %4 = sext i8 %3 to i32
  %5 = icmp sge i32 %4, 92
  br i1 %5, label %6, label %10

6:                                                ; preds = %1
  %7 = load i8, ptr %2, align 1, !tbaa !41
  %8 = sext i8 %7 to i32
  %9 = sub nsw i32 %8, 36
  br label %14

10:                                               ; preds = %1
  %11 = load i8, ptr %2, align 1, !tbaa !41
  %12 = sext i8 %11 to i32
  %13 = sub nsw i32 %12, 35
  br label %14

14:                                               ; preds = %10, %6
  %15 = phi i32 [ %9, %6 ], [ %13, %10 ]
  ret i32 %15
}

; Function Attrs: mustprogress uwtable
define internal void @_ZL8Decode85PKhPh(ptr noundef %0, ptr noundef %1) #6 {
  %3 = alloca ptr, align 8
  %4 = alloca ptr, align 8
  %5 = alloca i32, align 4
  store ptr %0, ptr %3, align 8, !tbaa !186
  store ptr %1, ptr %4, align 8, !tbaa !186
  br label %6

6:                                                ; preds = %10, %2
  %7 = load ptr, ptr %3, align 8, !tbaa !186
  %8 = load i8, ptr %7, align 1, !tbaa !41
  %9 = icmp ne i8 %8, 0
  br i1 %9, label %10, label %67

10:                                               ; preds = %6
  call void @llvm.lifetime.start.p0(i64 4, ptr %5) #17
  %11 = load ptr, ptr %3, align 8, !tbaa !186
  %12 = getelementptr inbounds i8, ptr %11, i64 0
  %13 = load i8, ptr %12, align 1, !tbaa !41
  %14 = call noundef i32 @_ZL12Decode85Bytec(i8 noundef signext %13)
  %15 = load ptr, ptr %3, align 8, !tbaa !186
  %16 = getelementptr inbounds i8, ptr %15, i64 1
  %17 = load i8, ptr %16, align 1, !tbaa !41
  %18 = call noundef i32 @_ZL12Decode85Bytec(i8 noundef signext %17)
  %19 = load ptr, ptr %3, align 8, !tbaa !186
  %20 = getelementptr inbounds i8, ptr %19, i64 2
  %21 = load i8, ptr %20, align 1, !tbaa !41
  %22 = call noundef i32 @_ZL12Decode85Bytec(i8 noundef signext %21)
  %23 = load ptr, ptr %3, align 8, !tbaa !186
  %24 = getelementptr inbounds i8, ptr %23, i64 3
  %25 = load i8, ptr %24, align 1, !tbaa !41
  %26 = call noundef i32 @_ZL12Decode85Bytec(i8 noundef signext %25)
  %27 = load ptr, ptr %3, align 8, !tbaa !186
  %28 = getelementptr inbounds i8, ptr %27, i64 4
  %29 = load i8, ptr %28, align 1, !tbaa !41
  %30 = call noundef i32 @_ZL12Decode85Bytec(i8 noundef signext %29)
  %31 = mul i32 85, %30
  %32 = add i32 %26, %31
  %33 = mul i32 85, %32
  %34 = add i32 %22, %33
  %35 = mul i32 85, %34
  %36 = add i32 %18, %35
  %37 = mul i32 85, %36
  %38 = add i32 %14, %37
  store i32 %38, ptr %5, align 4, !tbaa !27
  %39 = load i32, ptr %5, align 4, !tbaa !27
  %40 = lshr i32 %39, 0
  %41 = and i32 %40, 255
  %42 = trunc i32 %41 to i8
  %43 = load ptr, ptr %4, align 8, !tbaa !186
  %44 = getelementptr inbounds i8, ptr %43, i64 0
  store i8 %42, ptr %44, align 1, !tbaa !41
  %45 = load i32, ptr %5, align 4, !tbaa !27
  %46 = lshr i32 %45, 8
  %47 = and i32 %46, 255
  %48 = trunc i32 %47 to i8
  %49 = load ptr, ptr %4, align 8, !tbaa !186
  %50 = getelementptr inbounds i8, ptr %49, i64 1
  store i8 %48, ptr %50, align 1, !tbaa !41
  %51 = load i32, ptr %5, align 4, !tbaa !27
  %52 = lshr i32 %51, 16
  %53 = and i32 %52, 255
  %54 = trunc i32 %53 to i8
  %55 = load ptr, ptr %4, align 8, !tbaa !186
  %56 = getelementptr inbounds i8, ptr %55, i64 2
  store i8 %54, ptr %56, align 1, !tbaa !41
  %57 = load i32, ptr %5, align 4, !tbaa !27
  %58 = lshr i32 %57, 24
  %59 = and i32 %58, 255
  %60 = trunc i32 %59 to i8
  %61 = load ptr, ptr %4, align 8, !tbaa !186
  %62 = getelementptr inbounds i8, ptr %61, i64 3
  store i8 %60, ptr %62, align 1, !tbaa !41
  %63 = load ptr, ptr %3, align 8, !tbaa !186
  %64 = getelementptr inbounds i8, ptr %63, i64 5
  store ptr %64, ptr %3, align 8, !tbaa !186
  %65 = load ptr, ptr %4, align 8, !tbaa !186
  %66 = getelementptr inbounds i8, ptr %65, i64 4
  store ptr %66, ptr %4, align 8, !tbaa !186
  call void @llvm.lifetime.end.p0(i64 4, ptr %5) #17
  br label %6, !llvm.loop !354

67:                                               ; preds = %6
  ret void
}

; Function Attrs: mustprogress uwtable
define noundef ptr @_ZN11ImFontAtlas36AddFontFromMemoryCompressedBase85TTFEPKcfPK12ImFontConfigPKt(ptr noundef nonnull align 8 dereferenceable(676) %0, ptr noundef %1, float noundef %2, ptr noundef %3, ptr noundef %4) #6 align 2 {
  %6 = alloca ptr, align 8
  %7 = alloca ptr, align 8
  %8 = alloca float, align 4
  %9 = alloca ptr, align 8
  %10 = alloca ptr, align 8
  %11 = alloca i32, align 4
  %12 = alloca ptr, align 8
  %13 = alloca ptr, align 8
  store ptr %0, ptr %6, align 8, !tbaa !298
  store ptr %1, ptr %7, align 8, !tbaa !186
  store float %2, ptr %8, align 4, !tbaa !11
  store ptr %3, ptr %9, align 8, !tbaa !289
  store ptr %4, ptr %10, align 8, !tbaa !121
  %14 = load ptr, ptr %6, align 8
  call void @llvm.lifetime.start.p0(i64 4, ptr %11) #17
  %15 = load ptr, ptr %7, align 8, !tbaa !186
  %16 = call i64 @strlen(ptr noundef %15) #19
  %17 = trunc i64 %16 to i32
  %18 = add nsw i32 %17, 4
  %19 = sdiv i32 %18, 5
  %20 = mul nsw i32 %19, 4
  store i32 %20, ptr %11, align 4, !tbaa !27
  call void @llvm.lifetime.start.p0(i64 8, ptr %12) #17
  %21 = load i32, ptr %11, align 4, !tbaa !27
  %22 = sext i32 %21 to i64
  %23 = call noundef ptr @_ZN5ImGui8MemAllocEm(i64 noundef %22)
  store ptr %23, ptr %12, align 8, !tbaa !129
  %24 = load ptr, ptr %7, align 8, !tbaa !186
  %25 = load ptr, ptr %12, align 8, !tbaa !129
  call void @_ZL8Decode85PKhPh(ptr noundef %24, ptr noundef %25)
  call void @llvm.lifetime.start.p0(i64 8, ptr %13) #17
  %26 = load ptr, ptr %12, align 8, !tbaa !129
  %27 = load i32, ptr %11, align 4, !tbaa !27
  %28 = load float, ptr %8, align 4, !tbaa !11
  %29 = load ptr, ptr %9, align 8, !tbaa !289
  %30 = load ptr, ptr %10, align 8, !tbaa !121
  %31 = call noundef ptr @_ZN11ImFontAtlas30AddFontFromMemoryCompressedTTFEPKvifPK12ImFontConfigPKt(ptr noundef nonnull align 8 dereferenceable(676) %14, ptr noundef %26, i32 noundef %27, float noundef %28, ptr noundef %29, ptr noundef %30)
  store ptr %31, ptr %13, align 8, !tbaa !185
  %32 = load ptr, ptr %12, align 8, !tbaa !129
  call void @_ZN5ImGui7MemFreeEPv(ptr noundef %32)
  %33 = load ptr, ptr %13, align 8, !tbaa !185
  call void @llvm.lifetime.end.p0(i64 8, ptr %13) #17
  call void @llvm.lifetime.end.p0(i64 8, ptr %12) #17
  call void @llvm.lifetime.end.p0(i64 4, ptr %11) #17
  ret ptr %33
}