; Function Attrs: mustprogress uwtable
define noundef ptr @_ZN11ImFontAtlas36AddFontFromMemoryCompressedBase85TTFEPKcfPK12ImFontConfigPKt(ptr noundef nonnull align 8 captures(none) dereferenceable(676) %0, ptr noundef readonly captures(none) %1, float noundef %2, ptr noundef %3, ptr noundef %4) local_unnamed_addr #12 align 2 {
  %6 = tail call i64 @strlen(ptr noundef nonnull dereferenceable(1) %1) #44
  %7 = trunc i64 %6 to i32
  %8 = add nsw i32 %7, 4
  %9 = sdiv i32 %8, 5
  %10 = shl nsw i32 %9, 2
  %11 = sext i32 %10 to i64
  %12 = tail call noundef ptr @_ZN5ImGui8MemAllocEm(i64 noundef %11)
  %13 = load i8, ptr %1, align 1, !tbaa !23
  %.not21.i = icmp eq i8 %13, 0
  br i1 %.not21.i, label %_ZL8Decode85PKhPh.exit, label %.lr.ph.i

.lr.ph.i:                                         ; preds = %5, %.lr.ph.i
  %14 = phi i8 [ %58, %.lr.ph.i ], [ %13, %5 ]
  %.023.i = phi ptr [ %56, %.lr.ph.i ], [ %1, %5 ]
  %.01522.i = phi ptr [ %57, %.lr.ph.i ], [ %12, %5 ]
  %15 = sext i8 %14 to i32
  %16 = icmp sgt i8 %14, 91
  %.v.i.i = select i1 %16, i32 -36, i32 -35
  %17 = add nsw i32 %.v.i.i, %15
  %18 = getelementptr inbounds nuw i8, ptr %.023.i, i64 1
  %19 = load i8, ptr %18, align 1, !tbaa !23
  %20 = sext i8 %19 to i32
  %21 = icmp sgt i8 %19, 91
  %.v.i17.i = select i1 %21, i32 -36, i32 -35
  %22 = add nsw i32 %.v.i17.i, %20
  %23 = getelementptr inbounds nuw i8, ptr %.023.i, i64 2
  %24 = load i8, ptr %23, align 1, !tbaa !23
  %25 = sext i8 %24 to i32
  %26 = icmp sgt i8 %24, 91
  %.v.i18.i = select i1 %26, i32 -36, i32 -35
  %27 = add nsw i32 %.v.i18.i, %25
  %28 = getelementptr inbounds nuw i8, ptr %.023.i, i64 3
  %29 = load i8, ptr %28, align 1, !tbaa !23
  %30 = sext i8 %29 to i32
  %31 = icmp sgt i8 %29, 91
  %.v.i19.i = select i1 %31, i32 -36, i32 -35
  %32 = add nsw i32 %.v.i19.i, %30
  %33 = getelementptr inbounds nuw i8, ptr %.023.i, i64 4
  %34 = load i8, ptr %33, align 1, !tbaa !23
  %35 = sext i8 %34 to i32
  %36 = icmp sgt i8 %34, 91
  %.v.i20.i = select i1 %36, i32 -36, i32 -35
  %37 = add nsw i32 %.v.i20.i, %35
  %38 = mul nsw i32 %37, 85
  %39 = add nsw i32 %32, %38
  %40 = mul nsw i32 %39, 85
  %41 = add nsw i32 %27, %40
  %42 = mul nsw i32 %41, 85
  %43 = add nsw i32 %22, %42
  %44 = mul i32 %43, 85
  %45 = add i32 %17, %44
  %46 = trunc i32 %45 to i8
  store i8 %46, ptr %.01522.i, align 1, !tbaa !23
  %47 = lshr i32 %45, 8
  %48 = trunc i32 %47 to i8
  %49 = getelementptr inbounds nuw i8, ptr %.01522.i, i64 1
  store i8 %48, ptr %49, align 1, !tbaa !23
  %50 = lshr i32 %45, 16
  %51 = trunc i32 %50 to i8
  %52 = getelementptr inbounds nuw i8, ptr %.01522.i, i64 2
  store i8 %51, ptr %52, align 1, !tbaa !23
  %53 = lshr i32 %45, 24
  %54 = trunc nuw i32 %53 to i8
  %55 = getelementptr inbounds nuw i8, ptr %.01522.i, i64 3
  store i8 %54, ptr %55, align 1, !tbaa !23
  %56 = getelementptr inbounds nuw i8, ptr %.023.i, i64 5
  %57 = getelementptr inbounds nuw i8, ptr %.01522.i, i64 4
  %58 = load i8, ptr %56, align 1, !tbaa !23
  %.not.i = icmp eq i8 %58, 0
  br i1 %.not.i, label %_ZL8Decode85PKhPh.exit, label %.lr.ph.i, !llvm.loop !298

_ZL8Decode85PKhPh.exit:                           ; preds = %.lr.ph.i, %5
  %59 = tail call noundef ptr @_ZN11ImFontAtlas30AddFontFromMemoryCompressedTTFEPKvifPK12ImFontConfigPKt(ptr noundef nonnull align 8 dereferenceable(676) %0, ptr noundef %12, i32 poison, float noundef %2, ptr noundef %3, ptr noundef %4)
  tail call void @_ZN5ImGui7MemFreeEPv(ptr noundef %12)
  ret ptr %59
}